; Function Attrs: mustprogress uwtable
define noundef nonnull align 8 dereferenceable(9) ptr @_ZN4base18StatisticsRecorder17HistogramIteratorppEv(ptr noundef nonnull returned align 8 captures(ret: address, provenance) dereferenceable(9) %0) local_unnamed_addr #0 align 2 personality ptr @__gxx_personality_v0 {
  %2 = load ptr, ptr @_ZN4base18StatisticsRecorder11histograms_E, align 8, !tbaa !12
  %3 = getelementptr inbounds nuw i8, ptr %2, i64 8
  %4 = load ptr, ptr %0, align 8, !tbaa !22
  %5 = icmp eq ptr %4, %3
  %6 = load ptr, ptr @_ZN4base18StatisticsRecorder5lock_E, align 8
  %7 = icmp eq ptr %6, null
  %or.cond = select i1 %5, i1 true, i1 %7
  br i1 %or.cond, label %_ZN4base8AutoLockD2Ev.exit4, label %8

8:                                                ; preds = %1
  tail call void @_ZN4base8internal8LockImpl4LockEv(ptr noundef nonnull align 8 dereferenceable(40) %6)
  %9 = getelementptr inbounds nuw i8, ptr %0, i64 8
  %10 = load i8, ptr %9, align 8, !range !21
  %.fr10 = freeze i8 %10
  %11 = trunc i8 %.fr10 to i1
  %12 = load ptr, ptr %0, align 8, !tbaa !22
  br i1 %11, label %.split.us, label %.split

.split.us:                                        ; preds = %8
  %13 = tail call noundef ptr @_ZSt18_Rb_tree_incrementPSt18_Rb_tree_node_base(ptr noundef %12) #22
  store ptr %13, ptr %0, align 8, !tbaa !22
  br label %.split9

.split:                                           ; preds = %8, %17
  %14 = phi ptr [ %15, %17 ], [ %12, %8 ]
  %15 = tail call noundef ptr @_ZSt18_Rb_tree_incrementPSt18_Rb_tree_node_base(ptr noundef %14) #22
  store ptr %15, ptr %0, align 8, !tbaa !22
  %16 = icmp eq ptr %15, %3
  br i1 %16, label %.split9, label %17

17:                                               ; preds = %.split
  %18 = getelementptr inbounds nuw i8, ptr %15, i64 48
  %19 = load ptr, ptr %18, align 8, !tbaa !14
  %20 = getelementptr inbounds nuw i8, ptr %19, i64 40
  %21 = load atomic volatile i32, ptr %20 monotonic, align 4
  %22 = and i32 %21, 64
  %.not = icmp eq i32 %22, 0
  br i1 %.not, label %.split9, label %.split, !llvm.loop !23

.split9:                                          ; preds = %.split, %17, %.split.us
  invoke void @_ZN4base8internal8LockImpl6UnlockEv(ptr noundef nonnull align 8 dereferenceable(40) %6)
          to label %_ZN4base8AutoLockD2Ev.exit4 unwind label %23

23:                                               ; preds = %.split9
  %24 = landingpad { ptr, i32 }
          catch ptr null
  %25 = extractvalue { ptr, i32 } %24, 0
  tail call void @__clang_call_terminate(ptr %25) #23
  unreachable

_ZN4base8AutoLockD2Ev.exit4:                      ; preds = %.split9, %1
  ret ptr %0
}